; ModuleID = '38/224.c'
source_filename = "38/224.c"
target datalayout = "e-m:e-p270:32:32-p271:32:32-p272:64:64-i64:64-f80:128-n8:16:32:64-S128"
target triple = "x86_64-pc-linux-gnu"

@.str = private unnamed_addr constant [3 x i8] c"%d\00", align 1
@.str.1 = private unnamed_addr constant [4 x i8] c"%lf\00", align 1
@.str.2 = private unnamed_addr constant [7 x i8] c"%.5lf\0A\00", align 1

; Function Attrs: noinline nounwind uwtable
define dso_local i32 @main() #0 {
  %1 = alloca i32, align 4
  %2 = alloca i32, align 4
  %3 = alloca i32, align 4
  %4 = alloca [200 x double], align 16
  %5 = alloca i32, align 4
  %6 = alloca double, align 8
  %7 = alloca double*, align 8
  %8 = alloca double, align 8
  %9 = alloca double, align 8
  store i32 0, i32* %1, align 4
  %10 = call i32 (i8*, ...) @__isoc99_scanf(i8* getelementptr inbounds ([3 x i8], [3 x i8]* @.str, i64 0, i64 0), i32* %2)
  br label %11

11:                                               ; preds = %74, %0
  %12 = load i32, i32* %2, align 4
  %13 = add nsw i32 %12, -1
  store i32 %13, i32* %2, align 4
  %14 = icmp ne i32 %12, 0
  br i1 %14, label %15, label %82

15:                                               ; preds = %11
  %16 = call i32 (i8*, ...) @__isoc99_scanf(i8* getelementptr inbounds ([3 x i8], [3 x i8]* @.str, i64 0, i64 0), i32* %3)
  store i32 0, i32* %5, align 4
  br label %17

17:                                               ; preds = %26, %15
  %18 = load i32, i32* %5, align 4
  %19 = load i32, i32* %3, align 4
  %20 = icmp slt i32 %18, %19
  br i1 %20, label %21, label %29

21:                                               ; preds = %17
  %22 = load i32, i32* %5, align 4
  %23 = sext i32 %22 to i64
  %24 = getelementptr inbounds [200 x double], [200 x double]* %4, i64 0, i64 %23
  %25 = call i32 (i8*, ...) @__isoc99_scanf(i8* getelementptr inbounds ([4 x i8], [4 x i8]* @.str.1, i64 0, i64 0), double* %24)
  br label %26

26:                                               ; preds = %21
  %27 = load i32, i32* %5, align 4
  %28 = add nsw i32 %27, 1
  store i32 %28, i32* %5, align 4
  br label %17

29:                                               ; preds = %17
  store double 0.000000e+00, double* %6, align 8
  %30 = getelementptr inbounds [200 x double], [200 x double]* %4, i64 0, i64 0
  store double* %30, double** %7, align 8
  br label %31

31:                                               ; preds = %43, %29
  %32 = load double*, double** %7, align 8
  %33 = getelementptr inbounds [200 x double], [200 x double]* %4, i64 0, i64 0
  %34 = load i32, i32* %3, align 4
  %35 = sext i32 %34 to i64
  %36 = getelementptr inbounds double, double* %33, i64 %35
  %37 = icmp ult double* %32, %36
  br i1 %37, label %38, label %46

38:                                               ; preds = %31
  %39 = load double*, double** %7, align 8
  %40 = load double, double* %39, align 8
  %41 = load double, double* %6, align 8
  %42 = fadd double %41, %40
  store double %42, double* %6, align 8
  br label %43

43:                                               ; preds = %38
  %44 = load double*, double** %7, align 8
  %45 = getelementptr inbounds double, double* %44, i32 1
  store double* %45, double** %7, align 8
  br label %31

46:                                               ; preds = %31
  %47 = load double, double* %6, align 8
  %48 = load i32, i32* %3, align 4
  %49 = sitofp i32 %48 to double
  %50 = fdiv double %47, %49
  store double %50, double* %8, align 8
  store double 0.000000e+00, double* %9, align 8
  %51 = getelementptr inbounds [200 x double], [200 x double]* %4, i64 0, i64 0
  store double* %51, double** %7, align 8
  br label %52

52:                                               ; preds = %71, %46
  %53 = load double*, double** %7, align 8
  %54 = getelementptr inbounds [200 x double], [200 x double]* %4, i64 0, i64 0
  %55 = load i32, i32* %3, align 4
  %56 = sext i32 %55 to i64
  %57 = getelementptr inbounds double, double* %54, i64 %56
  %58 = icmp ult double* %53, %57
  br i1 %58, label %59, label %74

59:                                               ; preds = %52
  %60 = load double*, double** %7, align 8
  %61 = load double, double* %60, align 8
  %62 = load double, double* %8, align 8
  %63 = fsub double %61, %62
  %64 = load double*, double** %7, align 8
  %65 = load double, double* %64, align 8
  %66 = load double, double* %8, align 8
  %67 = fsub double %65, %66
  %68 = fmul double %63, %67
  %69 = load double, double* %9, align 8
  %70 = fadd double %69, %68
  store double %70, double* %9, align 8
  br label %71

71:                                               ; preds = %59
  %72 = load double*, double** %7, align 8
  %73 = getelementptr inbounds double, double* %72, i32 1
  store double* %73, double** %7, align 8
  br label %52

74:                                               ; preds = %52
  %75 = load double, double* %9, align 8
  %76 = load i32, i32* %3, align 4
  %77 = sitofp i32 %76 to double
  %78 = fdiv double %75, %77
  %79 = call double @sqrt(double %78) #3
  store double %79, double* %9, align 8
  %80 = load double, double* %9, align 8
  %81 = call i32 (i8*, ...) @printf(i8* getelementptr inbounds ([7 x i8], [7 x i8]* @.str.2, i64 0, i64 0), double %80)
  br label %11

82:                                               ; preds = %11
  ret i32 0
}

declare dso_local i32 @__isoc99_scanf(i8*, ...) #1

; Function Attrs: nounwind
declare dso_local double @sqrt(double) #2

declare dso_local i32 @printf(i8*, ...) #1


!llvm.module.flags = !{!0}
!llvm.ident = !{!1}

!0 = !{i32 1, !"wchar_size", i32 4}
!1 = !{!"clang version 10.0.0-4ubuntu1 "}
